; Function Attrs: mustprogress uwtable
define internal void @_ZN32pxrInternal_v0_24__pxrReserved__12_GLOBAL__N_113_SphereToMesh17_PointsDataSource13GetTypedValueEf(ptr dead_on_unwind noalias writable sret(%"class.pxrInternal_v0_24__pxrReserved__::VtArray.91") align 8 %0, ptr noundef nonnull align 8 dereferenceable(24) %1, float noundef %2) unnamed_addr #1 align 2 personality ptr @__gxx_personality_v0 {
  %4 = alloca ptr, align 8
  %5 = alloca %"struct.pxrInternal_v0_24__pxrReserved__::GeomUtilMeshGeneratorBase::_PointWriter", align 8
  %6 = alloca %"class.std::shared_ptr.97", align 8
  %7 = tail call noundef i64 @_ZN32pxrInternal_v0_24__pxrReserved__27GeomUtilSphereMeshGenerator16ComputeNumPointsEmmb(i64 noundef 10, i64 noundef 10, i1 noundef zeroext true)
  tail call void @_ZN32pxrInternal_v0_24__pxrReserved__7VtArrayINS_7GfVec3fEEC1Em(ptr noundef nonnull align 8 dereferenceable(40) %0, i64 noundef %7)
  %8 = invoke noundef ptr @_ZN32pxrInternal_v0_24__pxrReserved__7VtArrayINS_7GfVec3fEE5beginEv(ptr noundef nonnull align 8 dereferenceable(40) %0)
          to label %9 unwind label %60

9:                                                ; preds = %3
  call void @llvm.lifetime.start.p0(i64 16, ptr nonnull %6)
  invoke fastcc void @_ZNK32pxrInternal_v0_24__pxrReserved__12_GLOBAL__N_113_SphereToMesh17_PointsDataSource16_GetRadiusSourceEv(ptr dead_on_unwind noalias nonnull writable align 8 %6, ptr noundef nonnull align 8 dereferenceable(24) %1)
          to label %.noexc unwind label %60

.noexc:                                           ; preds = %9
  %10 = load ptr, ptr %6, align 8
  %.not.i = icmp eq ptr %10, null
  br i1 %.not.i, label %18, label %11

11:                                               ; preds = %.noexc
  %12 = load ptr, ptr %10, align 8
  %13 = getelementptr inbounds i8, ptr %12, i64 32
  %14 = load ptr, ptr %13, align 8
  %15 = invoke noundef double %14(ptr noundef nonnull align 8 dereferenceable(8) %10, float noundef %2)
          to label %18 unwind label %16

16:                                               ; preds = %11
  %17 = landingpad { ptr, i32 }
          cleanup
  call void @_ZNSt10shared_ptrIN32pxrInternal_v0_24__pxrReserved__24HdTypedSampledDataSourceIdEEED2Ev(ptr noundef nonnull align 8 dereferenceable(16) %6) #24
  br label %.body

18:                                               ; preds = %11, %.noexc
  %.05.i = phi double [ %15, %11 ], [ undef, %.noexc ]
  %19 = getelementptr inbounds nuw i8, ptr %6, i64 8
  %20 = load ptr, ptr %19, align 8
  %.not.i.i.i.i = icmp eq ptr %20, null
  br i1 %.not.i.i.i.i, label %55, label %21

21:                                               ; preds = %18
  %22 = getelementptr inbounds nuw i8, ptr %20, i64 8
  %23 = load atomic i64, ptr %22 acquire, align 8
  %24 = icmp eq i64 %23, 4294967297
  %25 = trunc i64 %23 to i32
  br i1 %24, label %26, label %31

26:                                               ; preds = %21
  store i32 0, ptr %22, align 8
  %27 = getelementptr inbounds nuw i8, ptr %20, i64 12
  store i32 0, ptr %27, align 4
  %28 = load ptr, ptr %20, align 8
  %29 = getelementptr inbounds i8, ptr %28, i64 16
  %30 = load ptr, ptr %29, align 8
  tail call void %30(ptr noundef nonnull align 8 dereferenceable(16) %20) #24
  br label %_ZNSt16_Sp_counted_baseILN9__gnu_cxx12_Lock_policyE2EE24_M_release_last_use_coldEv.exit.sink.split.i.i.i.i.i

31:                                               ; preds = %21
  %32 = load i8, ptr @__libc_single_threaded, align 1
  %.not.i.i.i.i.i = icmp eq i8 %32, 0
  br i1 %.not.i.i.i.i.i, label %35, label %33

33:                                               ; preds = %31
  %34 = add nsw i32 %25, -1
  store i32 %34, ptr %22, align 4
  br label %37

35:                                               ; preds = %31
  %36 = atomicrmw volatile add ptr %22, i32 -1 acq_rel, align 4
  br label %37

37:                                               ; preds = %35, %33
  %.0.i.i.i.i.i = phi i32 [ %25, %33 ], [ %36, %35 ]
  %38 = icmp eq i32 %.0.i.i.i.i.i, 1
  br i1 %38, label %39, label %55

39:                                               ; preds = %37
  %40 = load ptr, ptr %20, align 8
  %41 = getelementptr inbounds i8, ptr %40, i64 16
  %42 = load ptr, ptr %41, align 8
  tail call void %42(ptr noundef nonnull align 8 dereferenceable(16) %20) #24
  %43 = getelementptr inbounds nuw i8, ptr %20, i64 12
  %44 = load i8, ptr @__libc_single_threaded, align 1
  %.not.i.i.i.i.i.i.i = icmp eq i8 %44, 0
  br i1 %.not.i.i.i.i.i.i.i, label %48, label %45

45:                                               ; preds = %39
  %46 = load i32, ptr %43, align 4
  %47 = add nsw i32 %46, -1
  store i32 %47, ptr %43, align 4
  br label %50

48:                                               ; preds = %39
  %49 = atomicrmw volatile add ptr %43, i32 -1 acq_rel, align 4
  br label %50

50:                                               ; preds = %48, %45
  %.0.i.i.i.i.i.i.i = phi i32 [ %46, %45 ], [ %49, %48 ]
  %51 = icmp eq i32 %.0.i.i.i.i.i.i.i, 1
  br i1 %51, label %_ZNSt16_Sp_counted_baseILN9__gnu_cxx12_Lock_policyE2EE24_M_release_last_use_coldEv.exit.sink.split.i.i.i.i.i, label %55

_ZNSt16_Sp_counted_baseILN9__gnu_cxx12_Lock_policyE2EE24_M_release_last_use_coldEv.exit.sink.split.i.i.i.i.i: ; preds = %50, %26
  %52 = load ptr, ptr %20, align 8
  %53 = getelementptr inbounds i8, ptr %52, i64 24
  %54 = load ptr, ptr %53, align 8
  tail call void %54(ptr noundef nonnull align 8 dereferenceable(16) %20) #24
  br label %55

55:                                               ; preds = %_ZNSt16_Sp_counted_baseILN9__gnu_cxx12_Lock_policyE2EE24_M_release_last_use_coldEv.exit.sink.split.i.i.i.i.i, %50, %37, %18
  %56 = fptrunc double %.05.i to float
  call void @llvm.lifetime.end.p0(i64 16, ptr nonnull %6)
  call void @llvm.lifetime.start.p0(i64 8, ptr nonnull %4)
  call void @llvm.lifetime.start.p0(i64 32, ptr nonnull %5)
  store ptr %8, ptr %4, align 8
  store i64 ptrtoint (ptr @_ZNK32pxrInternal_v0_24__pxrReserved__25GeomUtilMeshGeneratorBase12_PointWriterINS_7GfVec3fEE11_WritePointIPS2_EEvRKS2_ to i64), ptr %5, align 8
  %57 = getelementptr inbounds i8, ptr %5, i64 8
  store i64 0, ptr %57, align 8
  %58 = getelementptr inbounds nuw i8, ptr %5, i64 16
  store ptr %4, ptr %58, align 8
  %59 = select i1 %.not.i, float 1.000000e+00, float %56
  invoke void @_ZN32pxrInternal_v0_24__pxrReserved__27GeomUtilSphereMeshGenerator19_GeneratePointsImplINS_7GfVec3fEEEvmmNT_10ScalarTypeES4_RKNS_25GeomUtilMeshGeneratorBase12_PointWriterIS3_EE(i64 noundef 10, i64 noundef 10, float noundef %59, float noundef 3.600000e+02, ptr noundef nonnull align 8 dereferenceable(32) %5)
          to label %62 unwind label %60

60:                                               ; preds = %55, %9, %3
  %61 = landingpad { ptr, i32 }
          cleanup
  br label %.body

.body:                                            ; preds = %16, %60
  %eh.lpad-body = phi { ptr, i32 } [ %61, %60 ], [ %17, %16 ]
  call void @_ZN32pxrInternal_v0_24__pxrReserved__7VtArrayINS_7GfVec3fEED1Ev(ptr noundef nonnull align 8 dereferenceable(40) %0) #24
  resume { ptr, i32 } %eh.lpad-body

62:                                               ; preds = %55
  call void @llvm.lifetime.end.p0(i64 8, ptr nonnull %4)
  call void @llvm.lifetime.end.p0(i64 32, ptr nonnull %5)
  ret void
}